target datalayout = "e-m:e-p270:32:32-p271:32:32-p272:64:64-i64:64-i128:128-f80:128-n8:16:32:64-S128"
target triple = "x86_64-pc-linux-gnu"

; Function Attrs: mustprogress uwtable
define internal noundef i64 @_ZN12_GLOBAL__N_121cmWriteToFileCallbackEPvmmS0_(ptr noundef %0, i64 noundef %1, i64 noundef %2, ptr noundef %3) #5 {
  %5 = alloca ptr, align 8
  %6 = alloca i64, align 8
  %7 = alloca i64, align 8
  %8 = alloca ptr, align 8
  %9 = alloca i32, align 4
  %10 = alloca ptr, align 8
  %11 = alloca ptr, align 8
  store ptr %0, ptr %5, align 8, !tbaa !16
  store i64 %1, ptr %6, align 8, !tbaa !17
  store i64 %2, ptr %7, align 8, !tbaa !17
  store ptr %3, ptr %8, align 8, !tbaa !16
  call void @llvm.lifetime.start.p0(i64 4, ptr %9) #3
  %12 = load i64, ptr %6, align 8, !tbaa !17
  %13 = load i64, ptr %7, align 8, !tbaa !17
  %14 = mul i64 %12, %13
  %15 = trunc i64 %14 to i32
  store i32 %15, ptr %9, align 4, !tbaa !52
  call void @llvm.lifetime.start.p0(i64 8, ptr %10) #3
  %16 = load ptr, ptr %8, align 8, !tbaa !16
  store ptr %16, ptr %10, align 8, !tbaa !202
  %17 = load ptr, ptr %10, align 8, !tbaa !202
  %18 = icmp ne ptr %17, null
  br i1 %18, label %19, label %26

19:                                               ; preds = %4
  call void @llvm.lifetime.start.p0(i64 8, ptr %11) #3
  %20 = load ptr, ptr %5, align 8, !tbaa !16
  store ptr %20, ptr %11, align 8, !tbaa !22
  %21 = load ptr, ptr %10, align 8, !tbaa !202
  %22 = load ptr, ptr %11, align 8, !tbaa !22
  %23 = load i32, ptr %9, align 4, !tbaa !52
  %24 = sext i32 %23 to i64
  %25 = call noundef nonnull align 8 dereferenceable(8) ptr @_ZNSo5writeEPKcl(ptr noundef nonnull align 8 dereferenceable(8) %21, ptr noundef %22, i64 noundef %24)
  call void @llvm.lifetime.end.p0(i64 8, ptr %11) #3
  br label %26

26:                                               ; preds = %19, %4
  %27 = load i32, ptr %9, align 4, !tbaa !52
  %28 = sext i32 %27 to i64
  call void @llvm.lifetime.end.p0(i64 8, ptr %10) #3
  call void @llvm.lifetime.end.p0(i64 4, ptr %9) #3
  ret i64 %28
}