; Function Attrs: mustprogress uwtable
define internal noundef range(i64 -2147483648, 2147483648) i64 @_ZN12_GLOBAL__N_121cmWriteToFileCallbackEPvmmS0_(ptr noundef %0, i64 noundef %1, i64 noundef %2, ptr noundef %3) #5 {
  %5 = mul i64 %2, %1
  %.not = icmp eq ptr %3, null
  %.pre = shl i64 %5, 32
  %.pre9 = ashr exact i64 %.pre, 32
  br i1 %.not, label %._crit_edge, label %6

6:                                                ; preds = %4
  %7 = tail call noundef nonnull align 8 dereferenceable(8) ptr @_ZNSo5writeEPKcl(ptr noundef nonnull align 8 dereferenceable(8) %3, ptr noundef %0, i64 noundef %.pre9)
  br label %._crit_edge

._crit_edge:                                      ; preds = %4, %6
  ret i64 %.pre9
}